; Function Attrs: mustprogress uwtable
define hidden noundef ptr @_ZN7datalog11udoc_plugin24mk_filter_interpreted_fnERKNS_13relation_baseEP3app(ptr noundef nonnull readonly align 8 captures(address) dereferenceable(129) %0, ptr noundef nonnull align 8 dereferenceable(28) %1, ptr noundef %2) unnamed_addr #3 align 2 {
  %4 = getelementptr inbounds nuw i8, ptr %1, i64 8
  %5 = load ptr, ptr %4, align 8, !tbaa !167
  %6 = icmp eq ptr %5, %0
  br i1 %6, label %7, label %15

7:                                                ; preds = %3
  %8 = tail call noalias noundef ptr @_ZN6memory8allocateEm(i64 noundef 256)
  %9 = tail call ptr @__dynamic_cast(ptr nonnull readonly align 8 dereferenceable(28) %1, ptr nonnull @_ZTIN7datalog13relation_baseE, ptr nonnull @_ZTIN7datalog13udoc_relationE, i64 0) #24
  %10 = icmp eq ptr %9, null
  br i1 %10, label %11, label %_ZN7datalog11udoc_plugin3getERKNS_13relation_baseE.exit

11:                                               ; preds = %7
  tail call void @__cxa_bad_cast() #25
  unreachable

_ZN7datalog11udoc_plugin3getERKNS_13relation_baseE.exit: ; preds = %7
  %12 = getelementptr inbounds nuw i8, ptr %0, i64 24
  %13 = load ptr, ptr %12, align 8, !tbaa !206
  %14 = tail call noundef nonnull align 8 dereferenceable(976) ptr @_ZN7datalog32get_ast_manager_from_rel_managerERKNS_16relation_managerE(ptr noundef nonnull align 8 dereferenceable(200) %13)
  tail call void @_ZN7datalog11udoc_plugin21filter_interpreted_fnC2ERKNS_13udoc_relationER11ast_managerP3app(ptr noundef nonnull align 8 dereferenceable(256) %8, ptr noundef nonnull align 8 dereferenceable(128) %9, ptr noundef nonnull align 8 dereferenceable(976) %14, ptr noundef %2)
  br label %15

15:                                               ; preds = %3, %_ZN7datalog11udoc_plugin3getERKNS_13relation_baseE.exit
  %16 = phi ptr [ %8, %_ZN7datalog11udoc_plugin3getERKNS_13relation_baseE.exit ], [ null, %3 ]
  ret ptr %16
}